target datalayout = "e-m:e-p270:32:32-p271:32:32-p272:64:64-i64:64-i128:128-f80:128-n8:16:32:64-S128"
target triple = "x86_64-pc-linux-gnu"

%"class.std::__cxx11::basic_string" = type { %"struct.std::__cxx11::basic_string<char>::_Alloc_hider", i64, %union.anon }
%"struct.std::__cxx11::basic_string<char>::_Alloc_hider" = type { ptr }
%union.anon = type { i64, [8 x i8] }
%"class.llvm::StringRef" = type { ptr, i64 }
%"class.std::optional.1044" = type { %"struct.std::_Optional_base.1045" }
%"struct.std::_Optional_base.1045" = type { %"struct.std::_Optional_payload.1047" }
%"struct.std::_Optional_payload.1047" = type { %"struct.std::_Optional_payload_base.base.1049", [3 x i8] }
%"struct.std::_Optional_payload_base.base.1049" = type <{ %"union.std::_Optional_payload_base<unsigned int>::_Storage", i8 }>
%"union.std::_Optional_payload_base<unsigned int>::_Storage" = type { i32 }
%"class.llvm::StringMapImpl" = type { ptr, i32, i32, i32, i32 }
%"class.llvm::VersionTuple" = type { i64, i64 }
%"class.clang::TargetCXXABI" = type { i32 }
%"class.clang::TargetInfo" = type <{ ptr, %"struct.clang::TransferrableTargetInfo.base", %"class.llvm::RefCountedBase.1052", %"class.std::shared_ptr", %"class.llvm::Triple", i8, i8, i8, i8, i8, i8, i8, i8, i8, i8, i8, i8, i8, i8, i8, i8, %"class.std::__cxx11::basic_string", ptr, ptr, i8, i8, [2 x i8], %"class.clang::TargetCXXABI", ptr, %"class.llvm::StringRef", %"class.llvm::VersionTuple", i32, i32, %"class.std::optional.1044", %"class.std::optional.1053", %"class.llvm::StringSet", i8, [7 x i8] }>
%"struct.clang::TransferrableTargetInfo.base" = type <{ i8, i8, i8, i8, i8, i8, i8, i8, i8, i8, i8, i8, i8, i8, i8, i8, i8, i8, i8, i8, i8, i8, i8, i8, i8, [3 x i8], %"class.std::optional.1044", i8, i8, i8, i8, i8, i8, i8, i8, i8, i8, i8, i8, i8, i8, i8, i8, i8, i8, i16, i16, [2 x i8], i32, i32, [4 x i8], ptr, ptr, ptr, ptr, ptr, ptr, ptr, i32, i32, i32, i32, i32, i32, i32, i32, i32, i32, i32, i32, i8, [3 x i8], i32, i32 }>
%"class.llvm::RefCountedBase.1052" = type { i32 }
%"class.std::shared_ptr" = type { %"class.std::__shared_ptr" }
%"class.std::__shared_ptr" = type { ptr, %"class.std::__shared_count" }
%"class.std::__shared_count" = type { ptr }
%"class.llvm::Triple" = type { %"class.std::__cxx11::basic_string", i32, i32, i32, i32, i32, i32 }
%"class.std::optional.1053" = type { %"struct.std::_Optional_base.1054" }
%"struct.std::_Optional_base.1054" = type { %"struct.std::_Optional_payload.1056" }
%"struct.std::_Optional_payload.1056" = type { %"struct.std::_Optional_payload.base.1060", [7 x i8] }
%"struct.std::_Optional_payload.base.1060" = type { %"struct.std::_Optional_payload_base.base.1059" }
%"struct.std::_Optional_payload_base.base.1059" = type <{ %"union.std::_Optional_payload_base<llvm::Triple>::_Storage", i8 }>
%"union.std::_Optional_payload_base<llvm::Triple>::_Storage" = type { %"class.llvm::Triple" }
%"class.llvm::StringSet" = type { %"class.llvm::StringMap.1063" }
%"class.llvm::StringMap.1063" = type { %"class.llvm::StringMapImpl" }

; Function Attrs: mustprogress nounwind uwtable
define linkonce_odr hidden noundef i32 @_ZNK4llvm6Triple9getVendorEv(ptr noundef nonnull align 8 dereferenceable(56) %0) #0 comdat align 2 {
  %2 = alloca ptr, align 8
  store ptr %0, ptr %2, align 8
  %3 = load ptr, ptr %2, align 8
  %4 = getelementptr inbounds nuw %"class.llvm::Triple", ptr %3, i32 0, i32 3
  %5 = load i32, ptr %4, align 8
  ret i32 %5
}

; Function Attrs: mustprogress nounwind uwtable
define linkonce_odr hidden noundef i32 @_ZNK4llvm6Triple7getArchEv(ptr noundef nonnull align 8 dereferenceable(56) %0) #0 comdat align 2 {
  %2 = alloca ptr, align 8
  store ptr %0, ptr %2, align 8
  %3 = load ptr, ptr %2, align 8
  %4 = getelementptr inbounds nuw %"class.llvm::Triple", ptr %3, i32 0, i32 1
  %5 = load i32, ptr %4, align 8
  ret i32 %5
}

; Function Attrs: mustprogress nounwind uwtable
define linkonce_odr hidden noundef zeroext i1 @_ZNK4llvm6Triple5isPS5Ev(ptr noundef nonnull align 8 dereferenceable(56) %0) #0 comdat align 2 {
  %2 = alloca ptr, align 8
  store ptr %0, ptr %2, align 8
  %3 = load ptr, ptr %2, align 8
  %4 = call noundef i32 @_ZNK4llvm6Triple7getArchEv(ptr noundef nonnull align 8 dereferenceable(56) %3)
  %5 = icmp eq i32 %4, 38
  br i1 %5, label %6, label %12

6:                                                ; preds = %1
  %7 = call noundef i32 @_ZNK4llvm6Triple9getVendorEv(ptr noundef nonnull align 8 dereferenceable(56) %3)
  %8 = icmp eq i32 %7, 3
  br i1 %8, label %9, label %12

9:                                                ; preds = %6
  %10 = call noundef i32 @_ZNK4llvm6Triple5getOSEv(ptr noundef nonnull align 8 dereferenceable(56) %3)
  %11 = icmp eq i32 %10, 24
  br label %12

12:                                               ; preds = %9, %6, %1
  %13 = phi i1 [ false, %6 ], [ false, %1 ], [ %11, %9 ]
  ret i1 %13
}

; Function Attrs: mustprogress nounwind uwtable
define linkonce_odr hidden noundef zeroext i1 @_ZNK4llvm6Triple5isPS4Ev(ptr noundef nonnull align 8 dereferenceable(56) %0) #0 comdat align 2 {
  %2 = alloca ptr, align 8
  store ptr %0, ptr %2, align 8
  %3 = load ptr, ptr %2, align 8
  %4 = call noundef i32 @_ZNK4llvm6Triple7getArchEv(ptr noundef nonnull align 8 dereferenceable(56) %3)
  %5 = icmp eq i32 %4, 38
  br i1 %5, label %6, label %12

6:                                                ; preds = %1
  %7 = call noundef i32 @_ZNK4llvm6Triple9getVendorEv(ptr noundef nonnull align 8 dereferenceable(56) %3)
  %8 = icmp eq i32 %7, 3
  br i1 %8, label %9, label %12

9:                                                ; preds = %6
  %10 = call noundef i32 @_ZNK4llvm6Triple5getOSEv(ptr noundef nonnull align 8 dereferenceable(56) %3)
  %11 = icmp eq i32 %10, 23
  br label %12

12:                                               ; preds = %9, %6, %1
  %13 = phi i1 [ false, %6 ], [ false, %1 ], [ %11, %9 ]
  ret i1 %13
}

; Function Attrs: mustprogress nounwind uwtable
define linkonce_odr hidden noundef i32 @_ZNK4llvm6Triple5getOSEv(ptr noundef nonnull align 8 dereferenceable(56) %0) #0 comdat align 2 {
  %2 = alloca ptr, align 8
  store ptr %0, ptr %2, align 8
  %3 = load ptr, ptr %2, align 8
  %4 = getelementptr inbounds nuw %"class.llvm::Triple", ptr %3, i32 0, i32 4
  %5 = load i32, ptr %4, align 4
  ret i32 %5
}

; Function Attrs: mustprogress nounwind uwtable
define linkonce_odr hidden noundef zeroext i1 @_ZNK4llvm6Triple4isPSEv(ptr noundef nonnull align 8 dereferenceable(56) %0) #0 comdat align 2 {
  %2 = alloca ptr, align 8
  store ptr %0, ptr %2, align 8
  %3 = load ptr, ptr %2, align 8
  %4 = call noundef zeroext i1 @_ZNK4llvm6Triple5isPS4Ev(ptr noundef nonnull align 8 dereferenceable(56) %3)
  br i1 %4, label %7, label %5

5:                                                ; preds = %1
  %6 = call noundef zeroext i1 @_ZNK4llvm6Triple5isPS5Ev(ptr noundef nonnull align 8 dereferenceable(56) %3)
  br label %7

7:                                                ; preds = %5, %1
  %8 = phi i1 [ true, %1 ], [ %6, %5 ]
  ret i1 %8
}

; Function Attrs: mustprogress nounwind uwtable
define linkonce_odr hidden noundef zeroext i1 @_ZNK4llvm6Triple11isOSWindowsEv(ptr noundef nonnull align 8 dereferenceable(56) %0) #0 comdat align 2 {
  %2 = alloca ptr, align 8
  store ptr %0, ptr %2, align 8
  %3 = load ptr, ptr %2, align 8
  %4 = call noundef i32 @_ZNK4llvm6Triple5getOSEv(ptr noundef nonnull align 8 dereferenceable(56) %3)
  %5 = icmp eq i32 %4, 14
  ret i1 %5
}

; Function Attrs: mustprogress nounwind uwtable
define linkonce_odr hidden noundef zeroext i1 @_ZNK4llvm6Triple18hasDLLImportExportEv(ptr noundef nonnull align 8 dereferenceable(56) %0) #0 comdat align 2 {
  %2 = alloca ptr, align 8
  store ptr %0, ptr %2, align 8
  %3 = load ptr, ptr %2, align 8
  %4 = call noundef zeroext i1 @_ZNK4llvm6Triple11isOSWindowsEv(ptr noundef nonnull align 8 dereferenceable(56) %3)
  br i1 %4, label %7, label %5

5:                                                ; preds = %1
  %6 = call noundef zeroext i1 @_ZNK4llvm6Triple4isPSEv(ptr noundef nonnull align 8 dereferenceable(56) %3)
  br label %7

7:                                                ; preds = %5, %1
  %8 = phi i1 [ true, %1 ], [ %6, %5 ]
  ret i1 %8
}

; Function Attrs: mustprogress nounwind uwtable
define linkonce_odr hidden noundef nonnull align 8 dereferenceable(56) ptr @_ZNK5clang10TargetInfo9getTripleEv(ptr noundef nonnull align 8 dereferenceable(489) %0) #0 comdat align 2 {
  %2 = alloca ptr, align 8
  store ptr %0, ptr %2, align 8
  %3 = load ptr, ptr %2, align 8
  %4 = getelementptr inbounds nuw %"class.clang::TargetInfo", ptr %3, i32 0, i32 4
  ret ptr %4
}

; Function Attrs: mustprogress nounwind uwtable
define internal noundef zeroext i1 @_ZNK12_GLOBAL__N_123ParsedAttrInfoDLLImport14existsInTargetERKN5clang10TargetInfoE(ptr noundef nonnull align 8 dereferenceable(48) %0, ptr noundef nonnull align 8 dereferenceable(489) %1) unnamed_addr #0 align 2 {
  %3 = alloca ptr, align 8
  %4 = alloca ptr, align 8
  %5 = alloca ptr, align 8
  store ptr %0, ptr %3, align 8
  store ptr %1, ptr %4, align 8
  %6 = load ptr, ptr %4, align 8
  %7 = call noundef nonnull align 8 dereferenceable(56) ptr @_ZNK5clang10TargetInfo9getTripleEv(ptr noundef nonnull align 8 dereferenceable(489) %6)
  store ptr %7, ptr %5, align 8
  %8 = load ptr, ptr %4, align 8
  %9 = call noundef nonnull align 8 dereferenceable(56) ptr @_ZNK5clang10TargetInfo9getTripleEv(ptr noundef nonnull align 8 dereferenceable(489) %8)
  %10 = call noundef zeroext i1 @_ZNK4llvm6Triple18hasDLLImportExportEv(ptr noundef nonnull align 8 dereferenceable(56) %9)
  ret i1 %10
}